; Function Attrs: fn_ret_thunk_extern nofree norecurse nosync nounwind null_pointer_is_valid memory(read, argmem: readwrite, inaccessiblemem: none)
define dso_local noundef i32 @kstrtoull(ptr nocapture noundef readonly %0, i32 noundef %1, ptr nocapture noundef writeonly %2) #1 align 16 {
  %4 = load i8, ptr %0, align 1
  %5 = icmp eq i8 %4, 43
  %6 = zext i1 %5 to i64
  %7 = getelementptr i8, ptr %0, i64 %6
  switch i32 %1, label %_parse_integer_fixup_radix.exit [
    i32 0, label %8
    i32 16, label %.thread5
  ]

8:                                                ; preds = %3
  %9 = load i8, ptr %7, align 1
  %10 = icmp eq i8 %9, 48
  br i1 %10, label %11, label %_parse_integer_fixup_radix.exit

11:                                               ; preds = %8
  %12 = getelementptr i8, ptr %7, i64 1
  %13 = load i8, ptr %12, align 1
  %14 = and i8 %13, -33
  %15 = icmp eq i8 %14, 88
  br i1 %15, label %16, label %_parse_integer_fixup_radix.exit

16:                                               ; preds = %11
  %17 = getelementptr i8, ptr %7, i64 2
  %18 = load i8, ptr %17, align 1
  %19 = zext i8 %18 to i64
  %20 = getelementptr [0 x i8], ptr @_ctype, i64 0, i64 %19
  %21 = load i8, ptr %20, align 1
  %22 = and i8 %21, 68
  %23 = icmp eq i8 %22, 0
  br i1 %23, label %_parse_integer_fixup_radix.exit, label %.thread5.thread

.thread5:                                         ; preds = %3
  %.pre = load i8, ptr %7, align 1
  %24 = icmp eq i8 %.pre, 48
  br i1 %24, label %.thread5.thread, label %_parse_integer_fixup_radix.exit

.thread5.thread:                                  ; preds = %16, %.thread5
  %25 = getelementptr i8, ptr %7, i64 1
  %26 = load i8, ptr %25, align 1
  %27 = and i8 %26, -33
  %28 = icmp eq i8 %27, 88
  %29 = select i1 %28, i64 2, i64 0
  %30 = getelementptr i8, ptr %7, i64 %29
  br label %_parse_integer_fixup_radix.exit

_parse_integer_fixup_radix.exit:                  ; preds = %3, %11, %16, %8, %.thread5, %.thread5.thread
  %.04 = phi i32 [ 16, %.thread5 ], [ 16, %.thread5.thread ], [ 10, %8 ], [ 8, %16 ], [ 8, %11 ], [ %1, %3 ]
  %31 = phi ptr [ %7, %.thread5 ], [ %30, %.thread5.thread ], [ %7, %8 ], [ %7, %16 ], [ %7, %11 ], [ %7, %3 ]
  %32 = zext i32 %.04 to i64
  br label %.lr.ph.i.i

.lr.ph.i.i:                                       ; preds = %62, %_parse_integer_fixup_radix.exit
  %.in.i.i = phi i64 [ %36, %62 ], [ 2147483647, %_parse_integer_fixup_radix.exit ]
  %33 = phi i32 [ %67, %62 ], [ 0, %_parse_integer_fixup_radix.exit ]
  %34 = phi i64 [ %66, %62 ], [ 0, %_parse_integer_fixup_radix.exit ]
  %35 = phi ptr [ %68, %62 ], [ %31, %_parse_integer_fixup_radix.exit ]
  %36 = add nsw i64 %.in.i.i, -1
  %37 = load i8, ptr %35, align 1
  %38 = or i8 %37, 32
  %39 = zext i8 %38 to i32
  %40 = add i8 %37, -48
  %41 = icmp ult i8 %40, 10
  br i1 %41, label %42, label %45

42:                                               ; preds = %.lr.ph.i.i
  %43 = zext nneg i8 %37 to i32
  %44 = add nsw i32 %43, -48
  br label %50

45:                                               ; preds = %.lr.ph.i.i
  %46 = add i8 %38, -97
  %47 = icmp ult i8 %46, 6
  br i1 %47, label %48, label %_parse_integer.exit

48:                                               ; preds = %45
  %49 = add nsw i32 %39, -87
  br label %50

50:                                               ; preds = %48, %42
  %51 = phi i32 [ %44, %42 ], [ %49, %48 ]
  %52 = icmp ult i32 %51, %.04
  br i1 %52, label %53, label %_parse_integer.exit

53:                                               ; preds = %50
  %54 = icmp ult i64 %34, 1152921504606846976
  br i1 %54, label %62, label %55, !prof !5

55:                                               ; preds = %53
  %56 = xor i32 %51, -1
  %57 = sext i32 %56 to i64
  %58 = udiv i64 %57, %32
  %59 = icmp ugt i64 %34, %58
  %60 = or i32 %33, -2147483648
  %61 = select i1 %59, i32 %60, i32 %33
  br label %62

62:                                               ; preds = %55, %53
  %63 = phi i32 [ %33, %53 ], [ %61, %55 ]
  %64 = mul i64 %34, %32
  %65 = zext nneg i32 %51 to i64
  %66 = add i64 %64, %65
  %67 = add i32 %63, 1
  %68 = getelementptr i8, ptr %35, i64 1
  %69 = icmp eq i64 %36, 0
  br i1 %69, label %_parse_integer.exit, label %.lr.ph.i.i

_parse_integer.exit:                              ; preds = %45, %50, %62
  %.lcssa2.i.i = phi i64 [ %34, %50 ], [ %34, %45 ], [ %66, %62 ]
  %.lcssa.i.i = phi i32 [ %33, %50 ], [ %33, %45 ], [ %67, %62 ]
  %70 = icmp sgt i32 %.lcssa.i.i, -1
  br i1 %70, label %71, label %83

71:                                               ; preds = %_parse_integer.exit
  %72 = icmp eq i32 %.lcssa.i.i, 0
  br i1 %72, label %83, label %73

73:                                               ; preds = %71
  %74 = zext nneg i32 %.lcssa.i.i to i64
  %75 = getelementptr i8, ptr %31, i64 %74
  %76 = load i8, ptr %75, align 1
  %77 = icmp eq i8 %76, 10
  %78 = zext i1 %77 to i64
  %79 = getelementptr i8, ptr %75, i64 %78
  %80 = load i8, ptr %79, align 1
  %81 = icmp eq i8 %80, 0
  br i1 %81, label %82, label %83

82:                                               ; preds = %73
  store i64 %.lcssa2.i.i, ptr %2, align 8
  br label %83

83:                                               ; preds = %82, %73, %71, %_parse_integer.exit
  %84 = phi i32 [ 0, %82 ], [ -34, %_parse_integer.exit ], [ -22, %71 ], [ -22, %73 ]
  ret i32 %84
}